target datalayout = "e-m:e-p270:32:32-p271:32:32-p272:64:64-i64:64-i128:128-f80:128-n8:16:32:64-S128"
target triple = "x86_64-pc-linux-gnu"

%struct._object = type { %union.anon, ptr }
%union.anon = type { i64 }
%struct.anon.0 = type { i32, i32 }
%struct.tok_state = type { ptr, ptr, ptr, i32, ptr, ptr, ptr, ptr, i32, ptr, i32, i32, [100 x i32], i32, i32, ptr, ptr, i32, i32, i32, i32, i32, [200 x i8], [200 x i32], [200 x i32], ptr, [100 x i32], i32, i32, ptr, i32, ptr, ptr, ptr, ptr, ptr, ptr, ptr, ptr, i32, i32, ptr, i32, [150 x %struct._tokenizer_mode], i32, i32, i32, i32 }
%struct._tokenizer_mode = type { i32, i32, i32, i8, i32, i32, ptr, ptr, i32, i64, i64, i64, i64, ptr, i32, i32 }
%struct.PyCompilerFlags = type { i32, i32 }

; Function Attrs: alwaysinline nounwind uwtable
define internal void @Py_INCREF(ptr noundef %0) #5 {
  %2 = alloca ptr, align 8
  %3 = alloca i32, align 4
  %4 = alloca i32, align 4
  store ptr %0, ptr %2, align 8, !tbaa !19
  call void @llvm.lifetime.start.p0(i64 4, ptr %3) #10
  %5 = load ptr, ptr %2, align 8, !tbaa !19
  %6 = getelementptr inbounds nuw %struct._object, ptr %5, i32 0, i32 0
  %7 = getelementptr inbounds nuw %struct.anon.0, ptr %6, i32 0, i32 0
  %8 = load i32, ptr %7, align 8, !tbaa !23
  store i32 %8, ptr %3, align 4, !tbaa !18
  %9 = load i32, ptr %3, align 4, !tbaa !18
  %10 = icmp slt i32 %9, 0
  br i1 %10, label %11, label %12

11:                                               ; preds = %1
  store i32 1, ptr %4, align 4
  br label %18

12:                                               ; preds = %1
  %13 = load i32, ptr %3, align 4, !tbaa !18
  %14 = add i32 %13, 1
  %15 = load ptr, ptr %2, align 8, !tbaa !19
  %16 = getelementptr inbounds nuw %struct._object, ptr %15, i32 0, i32 0
  %17 = getelementptr inbounds nuw %struct.anon.0, ptr %16, i32 0, i32 0
  store i32 %14, ptr %17, align 8, !tbaa !23
  store i32 0, ptr %4, align 4
  br label %18

18:                                               ; preds = %12, %11
  call void @llvm.lifetime.end.p0(i64 4, ptr %3) #10
  %19 = load i32, ptr %4, align 4
  switch i32 %19, label %21 [
    i32 0, label %20
    i32 1, label %20
  ]

20:                                               ; preds = %18, %18
  ret void

21:                                               ; preds = %18
  unreachable
}

; Function Attrs: nounwind uwtable
define internal i32 @compute_parser_flags(ptr noundef %0) #0 {
  %2 = alloca i32, align 4
  %3 = alloca ptr, align 8
  %4 = alloca i32, align 4
  %5 = alloca i32, align 4
  store ptr %0, ptr %3, align 8, !tbaa !4
  call void @llvm.lifetime.start.p0(i64 4, ptr %4) #10
  store i32 0, ptr %4, align 4, !tbaa !18
  %6 = load ptr, ptr %3, align 8, !tbaa !4
  %7 = icmp ne ptr %6, null
  br i1 %7, label %9, label %8

8:                                                ; preds = %1
  store i32 0, ptr %2, align 4
  store i32 1, ptr %5, align 4
  br label %56

9:                                                ; preds = %1
  %10 = load ptr, ptr %3, align 8, !tbaa !4
  %11 = getelementptr inbounds nuw %struct.PyCompilerFlags, ptr %10, i32 0, i32 0
  %12 = load i32, ptr %11, align 4, !tbaa !140
  %13 = and i32 %12, 512
  %14 = icmp ne i32 %13, 0
  br i1 %14, label %15, label %18

15:                                               ; preds = %9
  %16 = load i32, ptr %4, align 4, !tbaa !18
  %17 = or i32 %16, 2
  store i32 %17, ptr %4, align 4, !tbaa !18
  br label %18

18:                                               ; preds = %15, %9
  %19 = load ptr, ptr %3, align 8, !tbaa !4
  %20 = getelementptr inbounds nuw %struct.PyCompilerFlags, ptr %19, i32 0, i32 0
  %21 = load i32, ptr %20, align 4, !tbaa !140
  %22 = and i32 %21, 2048
  %23 = icmp ne i32 %22, 0
  br i1 %23, label %24, label %27

24:                                               ; preds = %18
  %25 = load i32, ptr %4, align 4, !tbaa !18
  %26 = or i32 %25, 16
  store i32 %26, ptr %4, align 4, !tbaa !18
  br label %27

27:                                               ; preds = %24, %18
  %28 = load ptr, ptr %3, align 8, !tbaa !4
  %29 = getelementptr inbounds nuw %struct.PyCompilerFlags, ptr %28, i32 0, i32 0
  %30 = load i32, ptr %29, align 4, !tbaa !140
  %31 = and i32 %30, 4194304
  %32 = icmp ne i32 %31, 0
  br i1 %32, label %33, label %36

33:                                               ; preds = %27
  %34 = load i32, ptr %4, align 4, !tbaa !18
  %35 = or i32 %34, 32
  store i32 %35, ptr %4, align 4, !tbaa !18
  br label %36

36:                                               ; preds = %33, %27
  %37 = load ptr, ptr %3, align 8, !tbaa !4
  %38 = getelementptr inbounds nuw %struct.PyCompilerFlags, ptr %37, i32 0, i32 0
  %39 = load i32, ptr %38, align 4, !tbaa !140
  %40 = and i32 %39, 4096
  %41 = icmp ne i32 %40, 0
  br i1 %41, label %42, label %45

42:                                               ; preds = %36
  %43 = load i32, ptr %4, align 4, !tbaa !18
  %44 = or i32 %43, 64
  store i32 %44, ptr %4, align 4, !tbaa !18
  br label %45

45:                                               ; preds = %42, %36
  %46 = load ptr, ptr %3, align 8, !tbaa !4
  %47 = getelementptr inbounds nuw %struct.PyCompilerFlags, ptr %46, i32 0, i32 0
  %48 = load i32, ptr %47, align 4, !tbaa !140
  %49 = and i32 %48, 16384
  %50 = icmp ne i32 %49, 0
  br i1 %50, label %51, label %54

51:                                               ; preds = %45
  %52 = load i32, ptr %4, align 4, !tbaa !18
  %53 = or i32 %52, 256
  store i32 %53, ptr %4, align 4, !tbaa !18
  br label %54

54:                                               ; preds = %51, %45
  %55 = load i32, ptr %4, align 4, !tbaa !18
  store i32 %55, ptr %2, align 4
  store i32 1, ptr %5, align 4
  br label %56

56:                                               ; preds = %54, %8
  call void @llvm.lifetime.end.p0(i64 4, ptr %4) #10
  %57 = load i32, ptr %2, align 4
  ret i32 %57
}

; Function Attrs: inlinehint nounwind uwtable
define internal ptr @_Py_NewRef(ptr noundef %0) #4 {
  %2 = alloca ptr, align 8
  store ptr %0, ptr %2, align 8, !tbaa !19
  %3 = load ptr, ptr %2, align 8, !tbaa !19
  call void @Py_INCREF(ptr noundef %3)
  %4 = load ptr, ptr %2, align 8, !tbaa !19
  ret ptr %4
}

; Function Attrs: nounwind uwtable
define hidden ptr @_PyPegen_run_parser_from_string(ptr noundef %0, i32 noundef %1, ptr noundef %2, ptr noundef %3, ptr noundef %4) #0 {
  %6 = alloca ptr, align 8
  %7 = alloca ptr, align 8
  %8 = alloca i32, align 4
  %9 = alloca ptr, align 8
  %10 = alloca ptr, align 8
  %11 = alloca ptr, align 8
  %12 = alloca i32, align 4
  %13 = alloca ptr, align 8
  %14 = alloca i32, align 4
  %15 = alloca ptr, align 8
  %16 = alloca i32, align 4
  %17 = alloca i32, align 4
  %18 = alloca ptr, align 8
  store ptr %0, ptr %7, align 8, !tbaa !21
  store i32 %1, ptr %8, align 4, !tbaa !18
  store ptr %2, ptr %9, align 8, !tbaa !19
  store ptr %3, ptr %10, align 8, !tbaa !4
  store ptr %4, ptr %11, align 8, !tbaa !118
  call void @llvm.lifetime.start.p0(i64 4, ptr %12) #10
  %19 = load i32, ptr %8, align 4, !tbaa !18
  %20 = icmp eq i32 %19, 257
  %21 = zext i1 %20 to i32
  store i32 %21, ptr %12, align 4, !tbaa !18
  call void @llvm.lifetime.start.p0(i64 8, ptr %13) #10
  %22 = load ptr, ptr %10, align 8, !tbaa !4
  %23 = icmp ne ptr %22, null
  br i1 %23, label %24, label %34

24:                                               ; preds = %5
  %25 = load ptr, ptr %10, align 8, !tbaa !4
  %26 = getelementptr inbounds nuw %struct.PyCompilerFlags, ptr %25, i32 0, i32 0
  %27 = load i32, ptr %26, align 4, !tbaa !140
  %28 = and i32 %27, 2048
  %29 = icmp ne i32 %28, 0
  br i1 %29, label %30, label %34

30:                                               ; preds = %24
  %31 = load ptr, ptr %7, align 8, !tbaa !21
  %32 = load i32, ptr %12, align 4, !tbaa !18
  %33 = call ptr @_PyTokenizer_FromUTF8(ptr noundef %31, i32 noundef %32, i32 noundef 0)
  store ptr %33, ptr %13, align 8, !tbaa !116
  br label %38

34:                                               ; preds = %24, %5
  %35 = load ptr, ptr %7, align 8, !tbaa !21
  %36 = load i32, ptr %12, align 4, !tbaa !18
  %37 = call ptr @_PyTokenizer_FromString(ptr noundef %35, i32 noundef %36, i32 noundef 0)
  store ptr %37, ptr %13, align 8, !tbaa !116
  br label %38

38:                                               ; preds = %34, %30
  %39 = load ptr, ptr %13, align 8, !tbaa !116
  %40 = icmp eq ptr %39, null
  br i1 %40, label %41, label %47

41:                                               ; preds = %38
  %42 = call ptr @PyErr_Occurred()
  %43 = icmp ne ptr %42, null
  br i1 %43, label %44, label %46

44:                                               ; preds = %41
  %45 = load ptr, ptr %9, align 8, !tbaa !19
  call void @_PyPegen_raise_tokenizer_init_error(ptr noundef %45)
  br label %46

46:                                               ; preds = %44, %41
  store ptr null, ptr %6, align 8
  store i32 1, ptr %14, align 4
  br label %85

47:                                               ; preds = %38
  %48 = load ptr, ptr %9, align 8, !tbaa !19
  %49 = call ptr @_Py_NewRef(ptr noundef %48)
  %50 = load ptr, ptr %13, align 8, !tbaa !116
  %51 = getelementptr inbounds nuw %struct.tok_state, ptr %50, i32 0, i32 25
  store ptr %49, ptr %51, align 8, !tbaa !136
  call void @llvm.lifetime.start.p0(i64 8, ptr %15) #10
  store ptr null, ptr %15, align 8, !tbaa !137
  call void @llvm.lifetime.start.p0(i64 4, ptr %16) #10
  %52 = load ptr, ptr %10, align 8, !tbaa !4
  %53 = call i32 @compute_parser_flags(ptr noundef %52)
  store i32 %53, ptr %16, align 4, !tbaa !18
  call void @llvm.lifetime.start.p0(i64 4, ptr %17) #10
  %54 = load ptr, ptr %10, align 8, !tbaa !4
  %55 = icmp ne ptr %54, null
  br i1 %55, label %56, label %66

56:                                               ; preds = %47
  %57 = load ptr, ptr %10, align 8, !tbaa !4
  %58 = getelementptr inbounds nuw %struct.PyCompilerFlags, ptr %57, i32 0, i32 0
  %59 = load i32, ptr %58, align 4, !tbaa !140
  %60 = and i32 %59, 1024
  %61 = icmp ne i32 %60, 0
  br i1 %61, label %62, label %66

62:                                               ; preds = %56
  %63 = load ptr, ptr %10, align 8, !tbaa !4
  %64 = getelementptr inbounds nuw %struct.PyCompilerFlags, ptr %63, i32 0, i32 1
  %65 = load i32, ptr %64, align 4, !tbaa !142
  br label %67

66:                                               ; preds = %56, %47
  br label %67

67:                                               ; preds = %66, %62
  %68 = phi i32 [ %65, %62 ], [ 14, %66 ]
  store i32 %68, ptr %17, align 4, !tbaa !18
  call void @llvm.lifetime.start.p0(i64 8, ptr %18) #10
  %69 = load ptr, ptr %13, align 8, !tbaa !116
  %70 = load i32, ptr %8, align 4, !tbaa !18
  %71 = load i32, ptr %16, align 4, !tbaa !18
  %72 = load i32, ptr %17, align 4, !tbaa !18
  %73 = load ptr, ptr %11, align 8, !tbaa !118
  %74 = call ptr @_PyPegen_Parser_New(ptr noundef %69, i32 noundef %70, i32 noundef %71, i32 noundef %72, ptr noundef null, ptr noundef %73)
  store ptr %74, ptr %18, align 8, !tbaa !4
  %75 = load ptr, ptr %18, align 8, !tbaa !4
  %76 = icmp eq ptr %75, null
  br i1 %76, label %77, label %78

77:                                               ; preds = %67
  br label %82

78:                                               ; preds = %67
  %79 = load ptr, ptr %18, align 8, !tbaa !4
  %80 = call ptr @_PyPegen_run_parser(ptr noundef %79)
  store ptr %80, ptr %15, align 8, !tbaa !137
  %81 = load ptr, ptr %18, align 8, !tbaa !4
  call void @_PyPegen_Parser_Free(ptr noundef %81)
  br label %82

82:                                               ; preds = %78, %77
  %83 = load ptr, ptr %13, align 8, !tbaa !116
  call void @_PyTokenizer_Free(ptr noundef %83)
  %84 = load ptr, ptr %15, align 8, !tbaa !137
  store ptr %84, ptr %6, align 8
  store i32 1, ptr %14, align 4
  call void @llvm.lifetime.end.p0(i64 8, ptr %18) #10
  call void @llvm.lifetime.end.p0(i64 4, ptr %17) #10
  call void @llvm.lifetime.end.p0(i64 4, ptr %16) #10
  call void @llvm.lifetime.end.p0(i64 8, ptr %15) #10
  br label %85

85:                                               ; preds = %82, %46
  call void @llvm.lifetime.end.p0(i64 8, ptr %13) #10
  call void @llvm.lifetime.end.p0(i64 4, ptr %12) #10
  %86 = load ptr, ptr %6, align 8
  ret ptr %86
}