; Function Attrs: nounwind uwtable
define hidden ptr @_PyPegen_run_parser_from_string(ptr noundef %0, i32 noundef %1, ptr noundef %2, ptr noundef readonly %3, ptr noundef %4) local_unnamed_addr #1 {
  %6 = icmp eq i32 %1, 257
  %7 = zext i1 %6 to i32
  %.not = icmp eq ptr %3, null
  br i1 %.not, label %13, label %8

8:                                                ; preds = %5
  %9 = load i32, ptr %3, align 4, !tbaa !127
  %10 = and i32 %9, 2048
  %.not29 = icmp eq i32 %10, 0
  br i1 %.not29, label %13, label %11

11:                                               ; preds = %8
  %12 = tail call ptr @_PyTokenizer_FromUTF8(ptr noundef %0, i32 noundef %7, i32 noundef 0) #13
  br label %15

13:                                               ; preds = %8, %5
  %14 = tail call ptr @_PyTokenizer_FromString(ptr noundef %0, i32 noundef %7, i32 noundef 0) #13
  br label %15

15:                                               ; preds = %13, %11
  %.025 = phi ptr [ %12, %11 ], [ %14, %13 ]
  %16 = icmp eq ptr %.025, null
  br i1 %16, label %17, label %20

17:                                               ; preds = %15
  %18 = tail call ptr @PyErr_Occurred() #13
  %.not31 = icmp eq ptr %18, null
  br i1 %.not31, label %45, label %19

19:                                               ; preds = %17
  tail call void @_PyPegen_raise_tokenizer_init_error(ptr noundef %2) #13
  br label %45

20:                                               ; preds = %15
  %21 = load i32, ptr %2, align 8, !tbaa !18
  %22 = icmp slt i32 %21, 0
  br i1 %22, label %_Py_NewRef.exit, label %23

23:                                               ; preds = %20
  %24 = add nuw i32 %21, 1
  store i32 %24, ptr %2, align 8, !tbaa !18
  br label %_Py_NewRef.exit

_Py_NewRef.exit:                                  ; preds = %20, %23
  %25 = getelementptr inbounds nuw i8, ptr %.025, i64 2336
  store ptr %2, ptr %25, align 8, !tbaa !126
  br i1 %.not, label %compute_parser_flags.exit.thread, label %26

26:                                               ; preds = %_Py_NewRef.exit
  %27 = load i32, ptr %3, align 4, !tbaa !127
  %28 = lshr i32 %27, 8
  %spec.select.i = and i32 %28, 2
  %29 = lshr i32 %27, 7
  %30 = and i32 %29, 16
  %.1.i = or disjoint i32 %spec.select.i, %30
  %31 = lshr i32 %27, 17
  %32 = and i32 %31, 32
  %.2.i = or disjoint i32 %.1.i, %32
  %33 = lshr i32 %27, 6
  %34 = and i32 %33, 320
  %.4.i = or disjoint i32 %.2.i, %34
  %35 = and i32 %27, 1024
  %.not30 = icmp eq i32 %35, 0
  br i1 %.not30, label %compute_parser_flags.exit.thread, label %36

36:                                               ; preds = %26
  %37 = getelementptr inbounds nuw i8, ptr %3, i64 4
  %38 = load i32, ptr %37, align 4, !tbaa !130
  br label %compute_parser_flags.exit.thread

compute_parser_flags.exit.thread:                 ; preds = %_Py_NewRef.exit, %26, %36
  %.012.i33 = phi i32 [ %.4.i, %36 ], [ %.4.i, %26 ], [ 0, %_Py_NewRef.exit ]
  %39 = phi i32 [ %38, %36 ], [ 14, %26 ], [ 14, %_Py_NewRef.exit ]
  %40 = tail call ptr @_PyPegen_Parser_New(ptr noundef nonnull %.025, i32 noundef %1, i32 noundef %.012.i33, i32 noundef %39, ptr noundef null, ptr noundef %4)
  %41 = icmp eq ptr %40, null
  br i1 %41, label %44, label %42

42:                                               ; preds = %compute_parser_flags.exit.thread
  %43 = tail call ptr @_PyPegen_run_parser(ptr noundef nonnull %40)
  tail call void @_PyPegen_Parser_Free(ptr noundef nonnull %40)
  br label %44

44:                                               ; preds = %compute_parser_flags.exit.thread, %42
  %.026 = phi ptr [ null, %compute_parser_flags.exit.thread ], [ %43, %42 ]
  tail call void @_PyTokenizer_Free(ptr noundef nonnull %.025) #13
  br label %45

45:                                               ; preds = %17, %19, %44
  %.0 = phi ptr [ %.026, %44 ], [ null, %19 ], [ null, %17 ]
  ret ptr %.0
}